; ModuleID = 'source-C-CXX/29/212.c'
source_filename = "source-C-CXX/29/212.c"
target datalayout = "e-m:e-p270:32:32-p271:32:32-p272:64:64-i64:64-f80:128-n8:16:32:64-S128"
target triple = "x86_64-pc-linux-gnu"

@.str = private unnamed_addr constant [3 x i8] c"%d\00", align 1

; Function Attrs: nofree nounwind sspstrong uwtable
define dso_local i32 @main() local_unnamed_addr #0 {
  %1 = alloca i32, align 4
  %2 = bitcast i32* %1 to i8*
  call void @llvm.lifetime.start.p0i8(i64 4, i8* nonnull %2) #4
  %3 = call i32 (i8*, ...) @__isoc99_scanf(i8* getelementptr inbounds ([3 x i8], [3 x i8]* @.str, i64 0, i64 0), i32* nonnull %1)
  %4 = load i32, i32* %1, align 4, !tbaa !5
  %5 = icmp slt i32 %4, 1
  br i1 %5, label %28, label %6

6:                                                ; preds = %0, %23
  %7 = phi i32 [ %25, %23 ], [ 0, %0 ]
  %8 = phi i32 [ %26, %23 ], [ 1, %0 ]
  %9 = call i32 @llvm.smax.i32(i32 %8, i32 %4)
  br label %10

10:                                               ; preds = %6, %14
  %11 = phi i32 [ %8, %6 ], [ %15, %14 ]
  %12 = srem i32 %11, 7
  %13 = icmp eq i32 %12, 0
  br i1 %13, label %14, label %17

14:                                               ; preds = %17, %10
  %15 = add i32 %11, 1
  %16 = icmp eq i32 %11, %9
  br i1 %16, label %28, label %10, !llvm.loop !9

17:                                               ; preds = %10
  %18 = srem i32 %11, 10
  %19 = add i32 %11, -70
  %20 = icmp ult i32 %19, 10
  %21 = icmp eq i32 %18, 7
  %22 = or i1 %20, %21
  br i1 %22, label %14, label %23

23:                                               ; preds = %17
  %24 = mul nsw i32 %11, %11
  %25 = add nuw nsw i32 %7, %24
  %26 = add nsw i32 %11, 1
  %27 = icmp slt i32 %11, %4
  br i1 %27, label %6, label %28, !llvm.loop !9

28:                                               ; preds = %23, %14, %0
  %29 = phi i32 [ 0, %0 ], [ %7, %14 ], [ %25, %23 ]
  %30 = call i32 (i8*, ...) @printf(i8* nonnull dereferenceable(1) getelementptr inbounds ([3 x i8], [3 x i8]* @.str, i64 0, i64 0), i32 %29)
  call void @llvm.lifetime.end.p0i8(i64 4, i8* nonnull %2) #4
  ret i32 0
}

; Function Attrs: argmemonly mustprogress nofree nosync nounwind willreturn
declare void @llvm.lifetime.start.p0i8(i64 immarg, i8* nocapture) #1

; Function Attrs: nofree nounwind
declare noundef i32 @__isoc99_scanf(i8* nocapture noundef readonly, ...) local_unnamed_addr #2

; Function Attrs: nofree nounwind
declare noundef i32 @printf(i8* nocapture noundef readonly, ...) local_unnamed_addr #2

; Function Attrs: argmemonly mustprogress nofree nosync nounwind willreturn
declare void @llvm.lifetime.end.p0i8(i64 immarg, i8* nocapture) #1

; Function Attrs: nofree nosync nounwind readnone speculatable willreturn
declare i32 @llvm.smax.i32(i32, i32) #3


!llvm.module.flags = !{!0, !1, !2, !3}
!llvm.ident = !{!4}

!0 = !{i32 1, !"wchar_size", i32 4}
!1 = !{i32 7, !"PIC Level", i32 2}
!2 = !{i32 7, !"PIE Level", i32 2}
!3 = !{i32 7, !"uwtable", i32 1}
!4 = !{!"clang version 13.0.0"}
!5 = !{!6, !6, i64 0}
!6 = !{!"int", !7, i64 0}
!7 = !{!"omnipotent char", !8, i64 0}
!8 = !{!"Simple C/C++ TBAA"}
!9 = distinct !{!9, !10}
!10 = !{!"llvm.loop.mustprogress"}
